; Function Attrs: mustprogress uwtable
define dso_local void @_ZN5vcpkg10Paragraphs22append_paragraph_fieldENS_10StringViewES1_RNSt7__cxx1112basic_stringIcSt11char_traitsIcESaIcEEE(ptr %0, i64 %1, ptr %2, i64 %3, ptr noundef nonnull align 8 dereferenceable(32) %4) local_unnamed_addr #0 personality ptr @__gxx_personality_v0 {
  %6 = icmp eq i64 %3, 0
  br i1 %6, label %42, label %7

7:                                                ; preds = %5
  %8 = getelementptr inbounds nuw i8, ptr %4, i64 8
  %9 = load i64, ptr %8, align 8, !tbaa !25
  %10 = sub i64 4611686018427387903, %9
  %11 = icmp ult i64 %10, %1
  br i1 %11, label %12, label %_ZNSt7__cxx1112basic_stringIcSt11char_traitsIcESaIcEE6appendEPKcm.exit

12:                                               ; preds = %7
  tail call void @_ZSt20__throw_length_errorPKc(ptr noundef nonnull @.str.31) #28
  unreachable

_ZNSt7__cxx1112basic_stringIcSt11char_traitsIcESaIcEE6appendEPKcm.exit: ; preds = %7
  %13 = tail call noundef nonnull align 8 dereferenceable(32) ptr @_ZNSt7__cxx1112basic_stringIcSt11char_traitsIcESaIcEE9_M_appendEPKcm(ptr noundef nonnull align 8 dereferenceable(32) %4, ptr noundef %0, i64 noundef %1)
  %14 = getelementptr inbounds nuw i8, ptr %13, i64 8
  %15 = load i64, ptr %14, align 8, !tbaa !25
  %16 = and i64 %15, -2
  %17 = icmp eq i64 %16, 4611686018427387902
  br i1 %17, label %18, label %_ZNSt7__cxx1112basic_stringIcSt11char_traitsIcESaIcEE6appendEPKc.exit

18:                                               ; preds = %_ZNSt7__cxx1112basic_stringIcSt11char_traitsIcESaIcEE6appendEPKcm.exit
  tail call void @_ZSt20__throw_length_errorPKc(ptr noundef nonnull @.str.31) #28
  unreachable

_ZNSt7__cxx1112basic_stringIcSt11char_traitsIcESaIcEE6appendEPKc.exit: ; preds = %_ZNSt7__cxx1112basic_stringIcSt11char_traitsIcESaIcEE6appendEPKcm.exit
  %19 = tail call noundef nonnull align 8 dereferenceable(32) ptr @_ZNSt7__cxx1112basic_stringIcSt11char_traitsIcESaIcEE9_M_appendEPKcm(ptr noundef nonnull align 8 dereferenceable(32) %13, ptr noundef nonnull @.str, i64 noundef 2)
  %20 = getelementptr inbounds nuw i8, ptr %19, i64 8
  %21 = load i64, ptr %20, align 8, !tbaa !25
  %22 = sub i64 4611686018427387903, %21
  %23 = icmp ult i64 %22, %3
  br i1 %23, label %24, label %_ZNSt7__cxx1112basic_stringIcSt11char_traitsIcESaIcEE6appendEPKcm.exit1

24:                                               ; preds = %_ZNSt7__cxx1112basic_stringIcSt11char_traitsIcESaIcEE6appendEPKc.exit
  tail call void @_ZSt20__throw_length_errorPKc(ptr noundef nonnull @.str.31) #28
  unreachable

_ZNSt7__cxx1112basic_stringIcSt11char_traitsIcESaIcEE6appendEPKcm.exit1: ; preds = %_ZNSt7__cxx1112basic_stringIcSt11char_traitsIcESaIcEE6appendEPKc.exit
  %25 = tail call noundef nonnull align 8 dereferenceable(32) ptr @_ZNSt7__cxx1112basic_stringIcSt11char_traitsIcESaIcEE9_M_appendEPKcm(ptr noundef nonnull align 8 dereferenceable(32) %19, ptr noundef %2, i64 noundef %3)
  %26 = getelementptr inbounds nuw i8, ptr %25, i64 8
  %27 = load i64, ptr %26, align 8, !tbaa !25
  %28 = add i64 %27, 1
  %29 = load ptr, ptr %25, align 8, !tbaa !24
  %30 = getelementptr inbounds nuw i8, ptr %25, i64 16
  %31 = icmp eq ptr %29, %30
  br i1 %31, label %32, label %_ZNKSt7__cxx1112basic_stringIcSt11char_traitsIcESaIcEE8capacityEv.exit.i

32:                                               ; preds = %_ZNSt7__cxx1112basic_stringIcSt11char_traitsIcESaIcEE6appendEPKcm.exit1
  %33 = icmp ult i64 %27, 16
  tail call void @llvm.assume(i1 %33)
  br label %_ZNKSt7__cxx1112basic_stringIcSt11char_traitsIcESaIcEE8capacityEv.exit.i

_ZNKSt7__cxx1112basic_stringIcSt11char_traitsIcESaIcEE8capacityEv.exit.i: ; preds = %32, %_ZNSt7__cxx1112basic_stringIcSt11char_traitsIcESaIcEE6appendEPKcm.exit1
  %34 = load i64, ptr %30, align 8
  %35 = select i1 %31, i64 15, i64 %34
  %36 = icmp ugt i64 %28, %35
  br i1 %36, label %37, label %_ZNSt7__cxx1112basic_stringIcSt11char_traitsIcESaIcEE9push_backEc.exit

37:                                               ; preds = %_ZNKSt7__cxx1112basic_stringIcSt11char_traitsIcESaIcEE8capacityEv.exit.i
  tail call void @_ZNSt7__cxx1112basic_stringIcSt11char_traitsIcESaIcEE9_M_mutateEmmPKcm(ptr noundef nonnull align 8 dereferenceable(32) %25, i64 noundef %27, i64 noundef 0, ptr noundef null, i64 noundef 1)
  %.pre.i = load ptr, ptr %25, align 8, !tbaa !24
  br label %_ZNSt7__cxx1112basic_stringIcSt11char_traitsIcESaIcEE9push_backEc.exit

_ZNSt7__cxx1112basic_stringIcSt11char_traitsIcESaIcEE9push_backEc.exit: ; preds = %_ZNKSt7__cxx1112basic_stringIcSt11char_traitsIcESaIcEE8capacityEv.exit.i, %37
  %38 = phi ptr [ %.pre.i, %37 ], [ %29, %_ZNKSt7__cxx1112basic_stringIcSt11char_traitsIcESaIcEE8capacityEv.exit.i ]
  %39 = getelementptr inbounds nuw i8, ptr %38, i64 %27
  store i8 10, ptr %39, align 1, !tbaa !29
  store i64 %28, ptr %26, align 8, !tbaa !25
  %40 = load ptr, ptr %25, align 8, !tbaa !24
  %41 = getelementptr inbounds nuw i8, ptr %40, i64 %28
  store i8 0, ptr %41, align 1, !tbaa !29
  br label %42

42:                                               ; preds = %5, %_ZNSt7__cxx1112basic_stringIcSt11char_traitsIcESaIcEE9push_backEc.exit
  ret void
}